target datalayout = "e-m:e-p270:32:32-p271:32:32-p272:64:64-i64:64-i128:128-f80:128-n8:16:32:64-S128"
target triple = "x86_64-pc-linux-gnu"

%"class.solver::scoped_push" = type <{ ptr, i8, [7 x i8] }>
%class.ref.0 = type { ptr }
%"class.opt::pareto_base" = type { ptr, ptr, ptr, %class.ref, %class.params_ref, %class.ref.0, %class.svector }
%class.ref = type { ptr }
%class.params_ref = type { ptr }
%class.svector = type { %class.vector }
%class.vector = type { ptr }
%class.model = type { %class.model_core, %class.ptr_vector.43, %class.obj_map.45, %class.model_evaluator, i8, i8, %class.plugin_manager }
%class.model_core = type { ptr, ptr, i32, [4 x i8], %class.obj_map.31, %class.obj_map.36, %class.ptr_vector.41, %class.ptr_vector.41, %class.ptr_vector.41 }
%class.obj_map.31 = type { %class.core_hashtable.32 }
%class.core_hashtable.32 = type <{ ptr, i32, i32, i32, [4 x i8] }>
%class.obj_map.36 = type { %class.core_hashtable.37 }
%class.core_hashtable.37 = type <{ ptr, i32, i32, i32, [4 x i8] }>
%class.ptr_vector.41 = type { %class.vector.42 }
%class.vector.42 = type { ptr }
%class.ptr_vector.43 = type { %class.vector.44 }
%class.vector.44 = type { ptr }
%class.obj_map.45 = type { %class.core_hashtable.46 }
%class.core_hashtable.46 = type <{ ptr, i32, i32, i32, [4 x i8] }>
%class.model_evaluator = type { ptr }
%class.plugin_manager = type { %class.ptr_vector.50, %class.ptr_vector.50 }
%class.ptr_vector.50 = type { %class.vector.51 }
%class.vector.51 = type { ptr }
%class.ref_vector = type { %class.ref_vector_core }
%class.ref_vector_core = type { %class.ref_manager_wrapper, %class.ptr_vector.27 }
%class.ref_manager_wrapper = type { ptr }
%class.ptr_vector.27 = type { %class.vector.28 }
%class.vector.28 = type { ptr }
%class.check_sat_result = type { ptr, ptr, %class.ref_vector, %class.obj_ref.29, i32, i32, %class.ref.30, double }
%class.obj_ref.29 = type { ptr, ptr }
%class.ref.30 = type { ptr }
%class.ast_manager = type { %class.reslimit, %class.small_object_allocator, %class.family_manager, %class.parray_manager, %class.dependency_manager, %class.parray_manager.11, %class.ptr_vector.14, i32, i8, %class.ast_table, %class.obj_map, %class.id_gen, %class.id_gen, ptr, ptr, ptr, ptr, ptr, i32, i8, [3 x i8], %class.u_map, ptr, i8, i8, ptr, %class.symbol, %class.obj_map.22, ptr }
%class.reslimit = type { %"struct.std::atomic", i8, i64, i64, %class.svector.1, %class.ptr_vector }
%"struct.std::atomic" = type { %"struct.std::__atomic_base" }
%"struct.std::__atomic_base" = type { i32 }
%class.svector.1 = type { %class.vector.2 }
%class.vector.2 = type { ptr }
%class.ptr_vector = type { %class.vector.3 }
%class.vector.3 = type { ptr }
%class.small_object_allocator = type { [32 x ptr], [32 x ptr], i64 }
%class.family_manager = type { i32, %class.symbol_table, %class.svector }
%class.symbol_table = type { %class.core_hashtable, %class.vector.4, %class.svector.5 }
%class.core_hashtable = type <{ ptr, i32, i32, i32, [4 x i8] }>
%class.vector.4 = type { ptr }
%class.svector.5 = type { %class.vector.6 }
%class.vector.6 = type { ptr }
%class.parray_manager = type { ptr, ptr, %class.ptr_vector.7, %class.ptr_vector.7 }
%class.ptr_vector.7 = type { %class.vector.8 }
%class.vector.8 = type { ptr }
%class.dependency_manager = type { ptr, ptr, %class.ptr_vector.9 }
%class.ptr_vector.9 = type { %class.vector.10 }
%class.vector.10 = type { ptr }
%class.parray_manager.11 = type { ptr, ptr, %class.ptr_vector.12, %class.ptr_vector.12 }
%class.ptr_vector.12 = type { %class.vector.13 }
%class.vector.13 = type { ptr }
%class.ptr_vector.14 = type { %class.vector.15 }
%class.vector.15 = type { ptr }
%class.ast_table = type { %class.chashtable }
%class.chashtable = type { ptr, i32, i32, i32, i32, i32, i32, i32, ptr, ptr, ptr }
%class.obj_map = type { %class.core_hashtable.16 }
%class.core_hashtable.16 = type <{ ptr, i32, i32, i32, [4 x i8] }>
%class.id_gen = type { i32, %class.svector.18 }
%class.svector.18 = type { %class.vector.19 }
%class.vector.19 = type { ptr }
%class.u_map = type { %class.map }
%class.map = type { %class.table2map }
%class.table2map = type { %class.core_hashtable.20 }
%class.core_hashtable.20 = type <{ ptr, i32, i32, i32, [4 x i8] }>
%class.symbol = type { ptr }
%class.obj_map.22 = type { %class.core_hashtable.23 }
%class.core_hashtable.23 = type <{ ptr, i32, i32, i32, [4 x i8] }>

; Function Attrs: mustprogress nounwind uwtable
define linkonce_odr hidden noundef ptr @_ZNK3refI15model_converterE3getEv(ptr noundef nonnull align 8 dereferenceable(8) %0) #6 comdat align 2 {
  %2 = alloca ptr, align 8
  store ptr %0, ptr %2, align 8, !tbaa !79
  %3 = load ptr, ptr %2, align 8
  %4 = getelementptr inbounds nuw %class.ref.30, ptr %3, i32 0, i32 0
  %5 = load ptr, ptr %4, align 8, !tbaa !81
  ret ptr %5
}

; Function Attrs: mustprogress uwtable
define linkonce_odr hidden noundef ptr @_ZNK16check_sat_result3mc0Ev(ptr noundef nonnull align 8 dereferenceable(72) %0) #4 comdat align 2 {
  %2 = alloca ptr, align 8
  store ptr %0, ptr %2, align 8, !tbaa !37
  %3 = load ptr, ptr %2, align 8
  %4 = getelementptr inbounds nuw %class.check_sat_result, ptr %3, i32 0, i32 6
  %5 = call noundef ptr @_ZNK3refI15model_converterE3getEv(ptr noundef nonnull align 8 dereferenceable(8) %4)
  ret ptr %5
}

; Function Attrs: mustprogress nounwind uwtable
define linkonce_odr hidden noundef zeroext i1 @_ZNK3refI5modelEcvbEv(ptr noundef nonnull align 8 dereferenceable(8) %0) #6 comdat align 2 {
  %2 = alloca ptr, align 8
  store ptr %0, ptr %2, align 8, !tbaa !39
  %3 = load ptr, ptr %2, align 8
  %4 = getelementptr inbounds nuw %class.ref.0, ptr %3, i32 0, i32 0
  %5 = load ptr, ptr %4, align 8, !tbaa !47
  %6 = icmp ne ptr %5, null
  ret i1 %6
}

; Function Attrs: mustprogress nounwind uwtable
define linkonce_odr hidden noundef nonnull align 8 dereferenceable(40) ptr @_ZN11ast_manager5limitEv(ptr noundef nonnull align 8 dereferenceable(976) %0) #6 comdat align 2 {
  %2 = alloca ptr, align 8
  store ptr %0, ptr %2, align 8, !tbaa !30
  %3 = load ptr, ptr %2, align 8
  %4 = getelementptr inbounds nuw %class.ast_manager, ptr %3, i32 0, i32 0
  ret ptr %4
}

; Function Attrs: mustprogress uwtable
define linkonce_odr hidden void @_ZN5model20set_model_completionEb(ptr noundef nonnull align 8 dereferenceable(160) %0, i1 noundef zeroext %1) #4 comdat align 2 {
  %3 = alloca ptr, align 8
  %4 = alloca i8, align 1
  store ptr %0, ptr %3, align 8, !tbaa !48
  %5 = zext i1 %1 to i8
  store i8 %5, ptr %4, align 1, !tbaa !49
  %6 = load ptr, ptr %3, align 8
  %7 = getelementptr inbounds nuw %class.model, ptr %6, i32 0, i32 3
  %8 = load i8, ptr %4, align 1, !tbaa !49, !range !50, !noundef !51
  %9 = trunc i8 %8 to i1
  call void @_ZN15model_evaluator20set_model_completionEb(ptr noundef nonnull align 8 dereferenceable(8) %7, i1 noundef zeroext %9)
  ret void
}

; Function Attrs: mustprogress nounwind uwtable
define linkonce_odr hidden noundef ptr @_ZNK3refI5modelEptEv(ptr noundef nonnull align 8 dereferenceable(8) %0) #6 comdat align 2 {
  %2 = alloca ptr, align 8
  store ptr %0, ptr %2, align 8, !tbaa !39
  %3 = load ptr, ptr %2, align 8
  %4 = getelementptr inbounds nuw %class.ref.0, ptr %3, i32 0, i32 0
  %5 = load ptr, ptr %4, align 8, !tbaa !47
  ret ptr %5
}

; Function Attrs: mustprogress uwtable
define linkonce_odr hidden void @_ZN16check_sat_result9get_modelER3refI5modelE(ptr noundef nonnull align 8 dereferenceable(72) %0, ptr noundef nonnull align 8 dereferenceable(8) %1) #4 comdat align 2 {
  %3 = alloca ptr, align 8
  %4 = alloca ptr, align 8
  store ptr %0, ptr %3, align 8, !tbaa !37
  store ptr %1, ptr %4, align 8, !tbaa !39
  %5 = load ptr, ptr %3, align 8
  %6 = load ptr, ptr %4, align 8, !tbaa !39
  %7 = load ptr, ptr %5, align 8, !tbaa !23
  %8 = getelementptr inbounds ptr, ptr %7, i64 4
  %9 = load ptr, ptr %8, align 8
  call void %9(ptr noundef nonnull align 8 dereferenceable(72) %5, ptr noundef nonnull align 8 dereferenceable(8) %6)
  %10 = load ptr, ptr %4, align 8, !tbaa !39
  %11 = call noundef zeroext i1 @_ZNK3refI5modelEcvbEv(ptr noundef nonnull align 8 dereferenceable(8) %10)
  br i1 %11, label %12, label %21

12:                                               ; preds = %2
  %13 = call noundef ptr @_ZNK16check_sat_result3mc0Ev(ptr noundef nonnull align 8 dereferenceable(72) %5)
  %14 = icmp ne ptr %13, null
  br i1 %14, label %15, label %21

15:                                               ; preds = %12
  %16 = call noundef ptr @_ZNK16check_sat_result3mc0Ev(ptr noundef nonnull align 8 dereferenceable(72) %5)
  %17 = load ptr, ptr %4, align 8, !tbaa !39
  %18 = load ptr, ptr %16, align 8, !tbaa !23
  %19 = getelementptr inbounds ptr, ptr %18, i64 4
  %20 = load ptr, ptr %19, align 8
  call void %20(ptr noundef nonnull align 8 dereferenceable(25) %16, ptr noundef nonnull align 8 dereferenceable(8) %17)
  br label %21

21:                                               ; preds = %15, %12, %2
  ret void
}

; Function Attrs: mustprogress nounwind uwtable
define linkonce_odr hidden void @_ZN6solver11scoped_pushD2Ev(ptr noundef nonnull align 8 dereferenceable(9) %0) unnamed_addr #6 comdat align 2 personality ptr @__gxx_personality_v0 {
  %2 = alloca ptr, align 8
  store ptr %0, ptr %2, align 8, !tbaa !41
  %3 = load ptr, ptr %2, align 8
  %4 = getelementptr inbounds nuw %"class.solver::scoped_push", ptr %3, i32 0, i32 1
  %5 = load i8, ptr %4, align 8, !tbaa !44, !range !50, !noundef !51
  %6 = trunc i8 %5 to i1
  br i1 %6, label %14, label %7

7:                                                ; preds = %1
  %8 = getelementptr inbounds nuw %"class.solver::scoped_push", ptr %3, i32 0, i32 0
  %9 = load ptr, ptr %8, align 8, !tbaa !61
  %10 = load ptr, ptr %9, align 8, !tbaa !23
  %11 = getelementptr inbounds ptr, ptr %10, i64 25
  %12 = load ptr, ptr %11, align 8
  invoke void %12(ptr noundef nonnull align 8 dereferenceable(96) %9, i32 noundef 1)
          to label %13 unwind label %15

13:                                               ; preds = %7
  br label %14

14:                                               ; preds = %13, %1
  ret void

15:                                               ; preds = %7
  %16 = landingpad { ptr, i32 }
          catch ptr null
  %17 = extractvalue { ptr, i32 } %16, 0
  call void @__clang_call_terminate(ptr %17) #18
  unreachable
}

; Function Attrs: mustprogress uwtable
define linkonce_odr hidden noundef zeroext i1 @_ZN11ast_manager3incEv(ptr noundef nonnull align 8 dereferenceable(976) %0) #4 comdat align 2 {
  %2 = alloca ptr, align 8
  store ptr %0, ptr %2, align 8, !tbaa !30
  %3 = load ptr, ptr %2, align 8
  %4 = call noundef nonnull align 8 dereferenceable(40) ptr @_ZN11ast_manager5limitEv(ptr noundef nonnull align 8 dereferenceable(976) %3)
  %5 = call noundef zeroext i1 @_ZN8reslimit3incEv(ptr noundef nonnull align 8 dereferenceable(40) %4)
  ret i1 %5
}

; Function Attrs: mustprogress nounwind uwtable
define linkonce_odr hidden noundef ptr @_ZNK3refI6solverEptEv(ptr noundef nonnull align 8 dereferenceable(8) %0) #6 comdat align 2 {
  %2 = alloca ptr, align 8
  store ptr %0, ptr %2, align 8, !tbaa !34
  %3 = load ptr, ptr %2, align 8
  %4 = getelementptr inbounds nuw %class.ref, ptr %3, i32 0, i32 0
  %5 = load ptr, ptr %4, align 8, !tbaa !36
  ret ptr %5
}

; Function Attrs: mustprogress uwtable
define linkonce_odr hidden void @_ZN6solver11scoped_pushC2ERS_(ptr noundef nonnull align 8 dereferenceable(9) %0, ptr noundef nonnull align 8 dereferenceable(96) %1) unnamed_addr #4 comdat align 2 {
  %3 = alloca ptr, align 8
  %4 = alloca ptr, align 8
  store ptr %0, ptr %3, align 8, !tbaa !41
  store ptr %1, ptr %4, align 8, !tbaa !43
  %5 = load ptr, ptr %3, align 8
  %6 = getelementptr inbounds nuw %"class.solver::scoped_push", ptr %5, i32 0, i32 0
  %7 = load ptr, ptr %4, align 8, !tbaa !43
  store ptr %7, ptr %6, align 8, !tbaa !43
  %8 = getelementptr inbounds nuw %"class.solver::scoped_push", ptr %5, i32 0, i32 1
  store i8 0, ptr %8, align 8, !tbaa !44
  %9 = load ptr, ptr %4, align 8, !tbaa !43
  %10 = load ptr, ptr %9, align 8, !tbaa !23
  %11 = getelementptr inbounds ptr, ptr %10, i64 24
  %12 = load ptr, ptr %11, align 8
  call void %12(ptr noundef nonnull align 8 dereferenceable(96) %9)
  ret void
}

; Function Attrs: mustprogress nounwind uwtable
define linkonce_odr hidden noundef ptr @_ZNK3refI6solverE3getEv(ptr noundef nonnull align 8 dereferenceable(8) %0) #6 comdat align 2 {
  %2 = alloca ptr, align 8
  store ptr %0, ptr %2, align 8, !tbaa !34
  %3 = load ptr, ptr %2, align 8
  %4 = getelementptr inbounds nuw %class.ref, ptr %3, i32 0, i32 0
  %5 = load ptr, ptr %4, align 8, !tbaa !36
  ret ptr %5
}

; Function Attrs: mustprogress uwtable
define hidden noundef i32 @_ZN3opt10oia_paretoclEv(ptr noundef nonnull align 8 dereferenceable(56) %0) unnamed_addr #4 align 2 personality ptr @__gxx_personality_v0 {
  %2 = alloca ptr, align 8
  %3 = alloca %"class.solver::scoped_push", align 8
  %4 = alloca i32, align 4
  %5 = alloca ptr, align 8
  %6 = alloca i32, align 4
  store ptr %0, ptr %2, align 8, !tbaa !69
  %7 = load ptr, ptr %2, align 8
  call void @llvm.lifetime.start.p0(i64 16, ptr %3) #3
  %8 = getelementptr inbounds nuw %"class.opt::pareto_base", ptr %7, i32 0, i32 3
  %9 = call noundef ptr @_ZNK3refI6solverE3getEv(ptr noundef nonnull align 8 dereferenceable(8) %8)
  call void @_ZN6solver11scoped_pushC2ERS_(ptr noundef nonnull align 8 dereferenceable(9) %3, ptr noundef nonnull align 8 dereferenceable(96) %9)
  call void @llvm.lifetime.start.p0(i64 4, ptr %4) #3
  %10 = getelementptr inbounds nuw %"class.opt::pareto_base", ptr %7, i32 0, i32 3
  %11 = invoke noundef ptr @_ZNK3refI6solverEptEv(ptr noundef nonnull align 8 dereferenceable(8) %10)
          to label %12 unwind label %20

12:                                               ; preds = %1
  %13 = invoke noundef i32 @_ZN6solver9check_satEjPKP4expr(ptr noundef nonnull align 8 dereferenceable(96) %11, i32 noundef 0, ptr noundef null)
          to label %14 unwind label %20

14:                                               ; preds = %12
  store i32 %13, ptr %4, align 4, !tbaa !21
  %15 = getelementptr inbounds nuw %"class.opt::pareto_base", ptr %7, i32 0, i32 1
  %16 = load ptr, ptr %15, align 8, !tbaa !8
  %17 = invoke noundef zeroext i1 @_ZN11ast_manager3incEv(ptr noundef nonnull align 8 dereferenceable(976) %16)
          to label %18 unwind label %20

18:                                               ; preds = %14
  br i1 %17, label %24, label %19

19:                                               ; preds = %18
  store i32 0, ptr %4, align 4, !tbaa !21
  br label %24

20:                                               ; preds = %44, %43, %40, %35, %32, %30, %27, %14, %12, %1
  %21 = landingpad { ptr, i32 }
          cleanup
  %22 = extractvalue { ptr, i32 } %21, 0
  store ptr %22, ptr %5, align 8
  %23 = extractvalue { ptr, i32 } %21, 1
  store i32 %23, ptr %6, align 4
  call void @llvm.lifetime.end.p0(i64 4, ptr %4) #3
  call void @_ZN6solver11scoped_pushD2Ev(ptr noundef nonnull align 8 dereferenceable(9) %3) #3
  call void @llvm.lifetime.end.p0(i64 16, ptr %3) #3
  br label %48

24:                                               ; preds = %19, %18
  %25 = load i32, ptr %4, align 4, !tbaa !21
  %26 = icmp eq i32 %25, 1
  br i1 %26, label %27, label %46

27:                                               ; preds = %24
  %28 = getelementptr inbounds nuw %"class.opt::pareto_base", ptr %7, i32 0, i32 3
  %29 = invoke noundef ptr @_ZNK3refI6solverEptEv(ptr noundef nonnull align 8 dereferenceable(8) %28)
          to label %30 unwind label %20

30:                                               ; preds = %27
  %31 = getelementptr inbounds nuw %"class.opt::pareto_base", ptr %7, i32 0, i32 5
  invoke void @_ZN16check_sat_result9get_modelER3refI5modelE(ptr noundef nonnull align 8 dereferenceable(72) %29, ptr noundef nonnull align 8 dereferenceable(8) %31)
          to label %32 unwind label %20

32:                                               ; preds = %30
  %33 = getelementptr inbounds nuw %"class.opt::pareto_base", ptr %7, i32 0, i32 3
  %34 = invoke noundef ptr @_ZNK3refI6solverEptEv(ptr noundef nonnull align 8 dereferenceable(8) %33)
          to label %35 unwind label %20

35:                                               ; preds = %32
  %36 = getelementptr inbounds nuw %"class.opt::pareto_base", ptr %7, i32 0, i32 6
  %37 = load ptr, ptr %34, align 8, !tbaa !23
  %38 = getelementptr inbounds ptr, ptr %37, i64 8
  %39 = load ptr, ptr %38, align 8
  invoke void %39(ptr noundef nonnull align 8 dereferenceable(72) %34, ptr noundef nonnull align 8 dereferenceable(8) %36)
          to label %40 unwind label %20

40:                                               ; preds = %35
  %41 = getelementptr inbounds nuw %"class.opt::pareto_base", ptr %7, i32 0, i32 5
  %42 = invoke noundef ptr @_ZNK3refI5modelEptEv(ptr noundef nonnull align 8 dereferenceable(8) %41)
          to label %43 unwind label %20

43:                                               ; preds = %40
  invoke void @_ZN5model20set_model_completionEb(ptr noundef nonnull align 8 dereferenceable(160) %42, i1 noundef zeroext true)
          to label %44 unwind label %20

44:                                               ; preds = %43
  invoke void @_ZN3opt11pareto_base19mk_not_dominated_byEv(ptr noundef nonnull align 8 dereferenceable(56) %7)
          to label %45 unwind label %20

45:                                               ; preds = %44
  br label %46

46:                                               ; preds = %45, %24
  %47 = load i32, ptr %4, align 4, !tbaa !21
  call void @llvm.lifetime.end.p0(i64 4, ptr %4) #3
  call void @_ZN6solver11scoped_pushD2Ev(ptr noundef nonnull align 8 dereferenceable(9) %3) #3
  call void @llvm.lifetime.end.p0(i64 16, ptr %3) #3
  ret i32 %47

48:                                               ; preds = %20
  %49 = load ptr, ptr %5, align 8
  %50 = load i32, ptr %6, align 4
  %51 = insertvalue { ptr, i32 } poison, ptr %49, 0
  %52 = insertvalue { ptr, i32 } %51, i32 %50, 1
  resume { ptr, i32 } %52
}