; Function Attrs: mustprogress uwtable
define hidden noundef i32 @_ZN3opt10oia_paretoclEv(ptr noundef nonnull align 8 dereferenceable(56) %0) unnamed_addr #3 align 2 personality ptr @__gxx_personality_v0 {
  %2 = getelementptr inbounds nuw i8, ptr %0, i64 24
  %3 = load ptr, ptr %2, align 8, !tbaa !23
  %4 = load ptr, ptr %3, align 8, !tbaa !24
  %5 = getelementptr inbounds nuw i8, ptr %4, i64 192
  %6 = load ptr, ptr %5, align 8
  tail call void %6(ptr noundef nonnull align 8 dereferenceable(96) %3)
  %7 = load ptr, ptr %2, align 8, !tbaa !23
  %8 = invoke noundef i32 @_ZN6solver9check_satEjPKP4expr(ptr noundef nonnull align 8 dereferenceable(96) %7, i32 noundef 0, ptr noundef null)
          to label %9 unwind label %14

9:                                                ; preds = %1
  %10 = getelementptr inbounds nuw i8, ptr %0, i64 8
  %11 = load ptr, ptr %10, align 8, !tbaa !3
  %12 = invoke noundef zeroext i1 @_ZN8reslimit3incEv(ptr noundef nonnull align 8 dereferenceable(976) %11)
          to label %_ZN11ast_manager3incEv.exit unwind label %14

_ZN11ast_manager3incEv.exit:                      ; preds = %9
  %spec.select = select i1 %12, i32 %8, i32 0
  %13 = icmp eq i32 %spec.select, 1
  br i1 %13, label %22, label %44

14:                                               ; preds = %1, %_ZN16check_sat_result9get_modelER3refI5modelE.exit, %_ZN5model20set_model_completionEb.exit, %9, %22, %32, %41
  %15 = landingpad { ptr, i32 }
          cleanup
  %16 = load ptr, ptr %3, align 8, !tbaa !24
  %17 = getelementptr inbounds nuw i8, ptr %16, i64 200
  %18 = load ptr, ptr %17, align 8
  invoke void %18(ptr noundef nonnull align 8 dereferenceable(96) %3, i32 noundef 1)
          to label %_ZN6solver11scoped_pushD2Ev.exit unwind label %19

19:                                               ; preds = %14
  %20 = landingpad { ptr, i32 }
          catch ptr null
  %21 = extractvalue { ptr, i32 } %20, 0
  tail call void @__clang_call_terminate(ptr %21) #20
  unreachable

_ZN6solver11scoped_pushD2Ev.exit:                 ; preds = %14
  resume { ptr, i32 } %15

22:                                               ; preds = %_ZN11ast_manager3incEv.exit
  %23 = load ptr, ptr %2, align 8, !tbaa !23
  %24 = getelementptr inbounds nuw i8, ptr %0, i64 40
  %25 = load ptr, ptr %23, align 8, !tbaa !24
  %26 = getelementptr inbounds nuw i8, ptr %25, i64 32
  %27 = load ptr, ptr %26, align 8
  invoke void %27(ptr noundef nonnull align 8 dereferenceable(72) %23, ptr noundef nonnull align 8 dereferenceable(8) %24)
          to label %.noexc unwind label %14

.noexc:                                           ; preds = %22
  %28 = load ptr, ptr %24, align 8, !tbaa !26
  %.not4.i = icmp eq ptr %28, null
  br i1 %.not4.i, label %_ZN16check_sat_result9get_modelER3refI5modelE.exit, label %29

29:                                               ; preds = %.noexc
  %30 = getelementptr inbounds nuw i8, ptr %23, i64 56
  %31 = load ptr, ptr %30, align 8, !tbaa !27
  %.not.i = icmp eq ptr %31, null
  br i1 %.not.i, label %_ZN16check_sat_result9get_modelER3refI5modelE.exit, label %32

32:                                               ; preds = %29
  %33 = load ptr, ptr %31, align 8, !tbaa !24
  %34 = getelementptr inbounds nuw i8, ptr %33, i64 32
  %35 = load ptr, ptr %34, align 8
  invoke void %35(ptr noundef nonnull align 8 dereferenceable(25) %31, ptr noundef nonnull align 8 dereferenceable(8) %24)
          to label %_ZN16check_sat_result9get_modelER3refI5modelE.exit unwind label %14

_ZN16check_sat_result9get_modelER3refI5modelE.exit: ; preds = %29, %.noexc, %32
  %36 = load ptr, ptr %2, align 8, !tbaa !23
  %37 = getelementptr inbounds nuw i8, ptr %0, i64 48
  %38 = load ptr, ptr %36, align 8, !tbaa !24
  %39 = getelementptr inbounds nuw i8, ptr %38, i64 64
  %40 = load ptr, ptr %39, align 8
  invoke void %40(ptr noundef nonnull align 8 dereferenceable(72) %36, ptr noundef nonnull align 8 dereferenceable(8) %37)
          to label %41 unwind label %14

41:                                               ; preds = %_ZN16check_sat_result9get_modelER3refI5modelE.exit
  %42 = load ptr, ptr %24, align 8, !tbaa !26
  %43 = getelementptr inbounds nuw i8, ptr %42, i64 128
  invoke void @_ZN15model_evaluator20set_model_completionEb(ptr noundef nonnull align 8 dereferenceable(8) %43, i1 noundef zeroext true)
          to label %_ZN5model20set_model_completionEb.exit unwind label %14

_ZN5model20set_model_completionEb.exit:           ; preds = %41
  invoke void @_ZN3opt11pareto_base19mk_not_dominated_byEv(ptr noundef nonnull align 8 dereferenceable(56) %0)
          to label %44 unwind label %14

44:                                               ; preds = %_ZN11ast_manager3incEv.exit, %_ZN5model20set_model_completionEb.exit
  %45 = load ptr, ptr %3, align 8, !tbaa !24
  %46 = getelementptr inbounds nuw i8, ptr %45, i64 200
  %47 = load ptr, ptr %46, align 8
  invoke void %47(ptr noundef nonnull align 8 dereferenceable(96) %3, i32 noundef 1)
          to label %_ZN6solver11scoped_pushD2Ev.exit6 unwind label %48

48:                                               ; preds = %44
  %49 = landingpad { ptr, i32 }
          catch ptr null
  %50 = extractvalue { ptr, i32 } %49, 0
  tail call void @__clang_call_terminate(ptr %50) #20
  unreachable

_ZN6solver11scoped_pushD2Ev.exit6:                ; preds = %44
  ret i32 %spec.select
}